; ModuleID = '58/982.c'
source_filename = "58/982.c"
target datalayout = "e-m:e-p270:32:32-p271:32:32-p272:64:64-i64:64-f80:128-n8:16:32:64-S128"
target triple = "x86_64-pc-linux-gnu"

@.str = private unnamed_addr constant [3 x i8] c"%d\00", align 1
@.str.1 = private unnamed_addr constant [3 x i8] c"%c\00", align 1
@.str.2 = private unnamed_addr constant [3 x i8] c"0\0A\00", align 1
@.str.3 = private unnamed_addr constant [3 x i8] c"1\0A\00", align 1

; Function Attrs: noinline nounwind uwtable
define dso_local i32 @main() #0 {
  %1 = alloca i32, align 4
  %2 = alloca [800 x [80 x i8]], align 16
  %3 = alloca i8, align 1
  %4 = alloca i32, align 4
  %5 = alloca i32, align 4
  %6 = alloca i32, align 4
  %7 = alloca i32, align 4
  store i32 0, i32* %1, align 4
  %8 = call i32 (i8*, ...) @__isoc99_scanf(i8* getelementptr inbounds ([3 x i8], [3 x i8]* @.str, i64 0, i64 0), i32* %7)
  %9 = call i32 (i8*, ...) @__isoc99_scanf(i8* getelementptr inbounds ([3 x i8], [3 x i8]* @.str.1, i64 0, i64 0), i8* %3)
  store i32 0, i32* %4, align 4
  br label %10

10:                                               ; preds = %162, %0
  %11 = load i32, i32* %4, align 4
  %12 = load i32, i32* %7, align 4
  %13 = icmp slt i32 %11, %12
  br i1 %13, label %14, label %165

14:                                               ; preds = %10
  %15 = load i32, i32* %4, align 4
  %16 = sext i32 %15 to i64
  %17 = getelementptr inbounds [800 x [80 x i8]], [800 x [80 x i8]]* %2, i64 0, i64 %16
  %18 = getelementptr inbounds [80 x i8], [80 x i8]* %17, i64 0, i64 0
  %19 = call i32 (i8*, ...) bitcast (i32 (...)* @gets to i32 (i8*, ...)*)(i8* %18)
  %20 = load i32, i32* %4, align 4
  %21 = sext i32 %20 to i64
  %22 = getelementptr inbounds [800 x [80 x i8]], [800 x [80 x i8]]* %2, i64 0, i64 %21
  %23 = getelementptr inbounds [80 x i8], [80 x i8]* %22, i64 0, i64 0
  %24 = load i8, i8* %23, align 16
  %25 = sext i8 %24 to i32
  %26 = icmp eq i32 %25, 95
  br i1 %26, label %59, label %27

27:                                               ; preds = %14
  %28 = load i32, i32* %4, align 4
  %29 = sext i32 %28 to i64
  %30 = getelementptr inbounds [800 x [80 x i8]], [800 x [80 x i8]]* %2, i64 0, i64 %29
  %31 = getelementptr inbounds [80 x i8], [80 x i8]* %30, i64 0, i64 0
  %32 = load i8, i8* %31, align 16
  %33 = sext i8 %32 to i32
  %34 = icmp sge i32 %33, 97
  br i1 %34, label %35, label %43

35:                                               ; preds = %27
  %36 = load i32, i32* %4, align 4
  %37 = sext i32 %36 to i64
  %38 = getelementptr inbounds [800 x [80 x i8]], [800 x [80 x i8]]* %2, i64 0, i64 %37
  %39 = getelementptr inbounds [80 x i8], [80 x i8]* %38, i64 0, i64 0
  %40 = load i8, i8* %39, align 16
  %41 = sext i8 %40 to i32
  %42 = icmp sle i32 %41, 122
  br i1 %42, label %59, label %43

43:                                               ; preds = %35, %27
  %44 = load i32, i32* %4, align 4
  %45 = sext i32 %44 to i64
  %46 = getelementptr inbounds [800 x [80 x i8]], [800 x [80 x i8]]* %2, i64 0, i64 %45
  %47 = getelementptr inbounds [80 x i8], [80 x i8]* %46, i64 0, i64 0
  %48 = load i8, i8* %47, align 16
  %49 = sext i8 %48 to i32
  %50 = icmp sge i32 %49, 65
  br i1 %50, label %51, label %159

51:                                               ; preds = %43
  %52 = load i32, i32* %4, align 4
  %53 = sext i32 %52 to i64
  %54 = getelementptr inbounds [800 x [80 x i8]], [800 x [80 x i8]]* %2, i64 0, i64 %53
  %55 = getelementptr inbounds [80 x i8], [80 x i8]* %54, i64 0, i64 0
  %56 = load i8, i8* %55, align 16
  %57 = sext i8 %56 to i32
  %58 = icmp sle i32 %57, 90
  br i1 %58, label %59, label %159

59:                                               ; preds = %51, %35, %14
  store i32 1, i32* %5, align 4
  br label %60

60:                                               ; preds = %143, %59
  %61 = load i32, i32* %4, align 4
  %62 = sext i32 %61 to i64
  %63 = getelementptr inbounds [800 x [80 x i8]], [800 x [80 x i8]]* %2, i64 0, i64 %62
  %64 = load i32, i32* %5, align 4
  %65 = sext i32 %64 to i64
  %66 = getelementptr inbounds [80 x i8], [80 x i8]* %63, i64 0, i64 %65
  %67 = load i8, i8* %66, align 1
  %68 = sext i8 %67 to i32
  %69 = icmp ne i32 %68, 0
  br i1 %69, label %70, label %146

70:                                               ; preds = %60
  %71 = load i32, i32* %4, align 4
  %72 = sext i32 %71 to i64
  %73 = getelementptr inbounds [800 x [80 x i8]], [800 x [80 x i8]]* %2, i64 0, i64 %72
  %74 = load i32, i32* %5, align 4
  %75 = sext i32 %74 to i64
  %76 = getelementptr inbounds [80 x i8], [80 x i8]* %73, i64 0, i64 %75
  %77 = load i8, i8* %76, align 1
  %78 = sext i8 %77 to i32
  %79 = icmp eq i32 %78, 95
  br i1 %79, label %140, label %80

80:                                               ; preds = %70
  %81 = load i32, i32* %4, align 4
  %82 = sext i32 %81 to i64
  %83 = getelementptr inbounds [800 x [80 x i8]], [800 x [80 x i8]]* %2, i64 0, i64 %82
  %84 = load i32, i32* %5, align 4
  %85 = sext i32 %84 to i64
  %86 = getelementptr inbounds [80 x i8], [80 x i8]* %83, i64 0, i64 %85
  %87 = load i8, i8* %86, align 1
  %88 = sext i8 %87 to i32
  %89 = icmp sge i32 %88, 97
  br i1 %89, label %90, label %100

90:                                               ; preds = %80
  %91 = load i32, i32* %4, align 4
  %92 = sext i32 %91 to i64
  %93 = getelementptr inbounds [800 x [80 x i8]], [800 x [80 x i8]]* %2, i64 0, i64 %92
  %94 = load i32, i32* %5, align 4
  %95 = sext i32 %94 to i64
  %96 = getelementptr inbounds [80 x i8], [80 x i8]* %93, i64 0, i64 %95
  %97 = load i8, i8* %96, align 1
  %98 = sext i8 %97 to i32
  %99 = icmp sle i32 %98, 122
  br i1 %99, label %140, label %100

100:                                              ; preds = %90, %80
  %101 = load i32, i32* %4, align 4
  %102 = sext i32 %101 to i64
  %103 = getelementptr inbounds [800 x [80 x i8]], [800 x [80 x i8]]* %2, i64 0, i64 %102
  %104 = load i32, i32* %5, align 4
  %105 = sext i32 %104 to i64
  %106 = getelementptr inbounds [80 x i8], [80 x i8]* %103, i64 0, i64 %105
  %107 = load i8, i8* %106, align 1
  %108 = sext i8 %107 to i32
  %109 = icmp sge i32 %108, 65
  br i1 %109, label %110, label %120

110:                                              ; preds = %100
  %111 = load i32, i32* %4, align 4
  %112 = sext i32 %111 to i64
  %113 = getelementptr inbounds [800 x [80 x i8]], [800 x [80 x i8]]* %2, i64 0, i64 %112
  %114 = load i32, i32* %5, align 4
  %115 = sext i32 %114 to i64
  %116 = getelementptr inbounds [80 x i8], [80 x i8]* %113, i64 0, i64 %115
  %117 = load i8, i8* %116, align 1
  %118 = sext i8 %117 to i32
  %119 = icmp sle i32 %118, 90
  br i1 %119, label %140, label %120

120:                                              ; preds = %110, %100
  %121 = load i32, i32* %4, align 4
  %122 = sext i32 %121 to i64
  %123 = getelementptr inbounds [800 x [80 x i8]], [800 x [80 x i8]]* %2, i64 0, i64 %122
  %124 = load i32, i32* %5, align 4
  %125 = sext i32 %124 to i64
  %126 = getelementptr inbounds [80 x i8], [80 x i8]* %123, i64 0, i64 %125
  %127 = load i8, i8* %126, align 1
  %128 = sext i8 %127 to i32
  %129 = icmp sge i32 %128, 48
  br i1 %129, label %130, label %141

130:                                              ; preds = %120
  %131 = load i32, i32* %4, align 4
  %132 = sext i32 %131 to i64
  %133 = getelementptr inbounds [800 x [80 x i8]], [800 x [80 x i8]]* %2, i64 0, i64 %132
  %134 = load i32, i32* %5, align 4
  %135 = sext i32 %134 to i64
  %136 = getelementptr inbounds [80 x i8], [80 x i8]* %133, i64 0, i64 %135
  %137 = load i8, i8* %136, align 1
  %138 = sext i8 %137 to i32
  %139 = icmp sle i32 %138, 57
  br i1 %139, label %140, label %141

140:                                              ; preds = %130, %110, %90, %70
  br label %143

141:                                              ; preds = %130, %120
  %142 = call i32 (i8*, ...) @printf(i8* getelementptr inbounds ([3 x i8], [3 x i8]* @.str.2, i64 0, i64 0))
  br label %146

143:                                              ; preds = %140
  %144 = load i32, i32* %5, align 4
  %145 = add nsw i32 %144, 1
  store i32 %145, i32* %5, align 4
  br label %60

146:                                              ; preds = %141, %60
  %147 = load i32, i32* %4, align 4
  %148 = sext i32 %147 to i64
  %149 = getelementptr inbounds [800 x [80 x i8]], [800 x [80 x i8]]* %2, i64 0, i64 %148
  %150 = load i32, i32* %5, align 4
  %151 = sext i32 %150 to i64
  %152 = getelementptr inbounds [80 x i8], [80 x i8]* %149, i64 0, i64 %151
  %153 = load i8, i8* %152, align 1
  %154 = sext i8 %153 to i32
  %155 = icmp eq i32 %154, 0
  br i1 %155, label %156, label %158

156:                                              ; preds = %146
  %157 = call i32 (i8*, ...) @printf(i8* getelementptr inbounds ([3 x i8], [3 x i8]* @.str.3, i64 0, i64 0))
  br label %158

158:                                              ; preds = %156, %146
  br label %161

159:                                              ; preds = %51, %43
  %160 = call i32 (i8*, ...) @printf(i8* getelementptr inbounds ([3 x i8], [3 x i8]* @.str.2, i64 0, i64 0))
  br label %161

161:                                              ; preds = %159, %158
  br label %162

162:                                              ; preds = %161
  %163 = load i32, i32* %4, align 4
  %164 = add nsw i32 %163, 1
  store i32 %164, i32* %4, align 4
  br label %10

165:                                              ; preds = %10
  %166 = load i32, i32* %1, align 4
  ret i32 %166
}

declare dso_local i32 @__isoc99_scanf(i8*, ...) #1

declare dso_local i32 @gets(...) #1

declare dso_local i32 @printf(i8*, ...) #1


!llvm.module.flags = !{!0}
!llvm.ident = !{!1}

!0 = !{i32 1, !"wchar_size", i32 4}
!1 = !{!"clang version 10.0.0-4ubuntu1 "}
