; ModuleID = 'source-C-CXX/57/982.c'
source_filename = "source-C-CXX/57/982.c"
target datalayout = "e-m:e-p270:32:32-p271:32:32-p272:64:64-i64:64-f80:128-n8:16:32:64-S128"
target triple = "x86_64-pc-linux-gnu"

@.str = private unnamed_addr constant [3 x i8] c"%d\00", align 1
@.str.1 = private unnamed_addr constant [3 x i8] c"%c\00", align 1
@str.4 = private unnamed_addr constant [2 x i8] c"1\00", align 1
@str.5 = private unnamed_addr constant [2 x i8] c"0\00", align 1

; Function Attrs: nounwind sspstrong uwtable
define dso_local i32 @main() local_unnamed_addr #0 {
  %1 = alloca [800 x [80 x i8]], align 16
  %2 = alloca i8, align 1
  %3 = alloca i32, align 4
  %4 = getelementptr inbounds [800 x [80 x i8]], [800 x [80 x i8]]* %1, i64 0, i64 0, i64 0
  call void @llvm.lifetime.start.p0i8(i64 64000, i8* nonnull %4) #5
  call void @llvm.lifetime.start.p0i8(i64 1, i8* nonnull %2) #5
  %5 = bitcast i32* %3 to i8*
  call void @llvm.lifetime.start.p0i8(i64 4, i8* nonnull %5) #5
  %6 = call i32 (i8*, ...) @__isoc99_scanf(i8* getelementptr inbounds ([3 x i8], [3 x i8]* @.str, i64 0, i64 0), i32* nonnull %3)
  %7 = call i32 (i8*, ...) @__isoc99_scanf(i8* getelementptr inbounds ([3 x i8], [3 x i8]* @.str.1, i64 0, i64 0), i8* nonnull %2)
  %8 = load i32, i32* %3, align 4, !tbaa !5
  %9 = icmp sgt i32 %8, 0
  br i1 %9, label %10, label %45

10:                                               ; preds = %0, %40
  %11 = phi i64 [ %41, %40 ], [ 0, %0 ]
  %12 = getelementptr inbounds [800 x [80 x i8]], [800 x [80 x i8]]* %1, i64 0, i64 %11, i64 0
  %13 = call i32 (i8*, ...) bitcast (i32 (...)* @gets to i32 (i8*, ...)*)(i8* nonnull %12) #5
  %14 = load i8, i8* %12, align 16, !tbaa !9
  %15 = icmp eq i8 %14, 95
  %16 = and i8 %14, -33
  %17 = add i8 %16, -65
  %18 = icmp ult i8 %17, 26
  %19 = or i1 %18, %15
  br i1 %19, label %20, label %37

20:                                               ; preds = %10, %31
  %21 = phi i64 [ %32, %31 ], [ 1, %10 ]
  %22 = getelementptr inbounds [800 x [80 x i8]], [800 x [80 x i8]]* %1, i64 0, i64 %11, i64 %21
  %23 = load i8, i8* %22, align 1, !tbaa !9
  switch i8 %23, label %24 [
    i8 0, label %37
    i8 95, label %31
  ]

24:                                               ; preds = %20
  %25 = and i8 %23, -33
  %26 = add i8 %25, -65
  %27 = icmp ult i8 %26, 26
  %28 = add i8 %23, -48
  %29 = icmp ult i8 %28, 10
  %30 = select i1 %27, i1 true, i1 %29
  br i1 %30, label %31, label %33

31:                                               ; preds = %24, %20
  %32 = add nuw i64 %21, 1
  br label %20, !llvm.loop !10

33:                                               ; preds = %24
  %34 = call i32 @puts(i8* nonnull dereferenceable(1) getelementptr inbounds ([2 x i8], [2 x i8]* @str.5, i64 0, i64 0))
  %35 = load i8, i8* %22, align 1, !tbaa !9
  %36 = icmp eq i8 %35, 0
  br i1 %36, label %37, label %40

37:                                               ; preds = %20, %10, %33
  %38 = phi i8* [ getelementptr inbounds ([2 x i8], [2 x i8]* @str.4, i64 0, i64 0), %33 ], [ getelementptr inbounds ([2 x i8], [2 x i8]* @str.5, i64 0, i64 0), %10 ], [ getelementptr inbounds ([2 x i8], [2 x i8]* @str.4, i64 0, i64 0), %20 ]
  %39 = call i32 @puts(i8* nonnull dereferenceable(1) %38)
  br label %40

40:                                               ; preds = %37, %33
  %41 = add nuw nsw i64 %11, 1
  %42 = load i32, i32* %3, align 4, !tbaa !5
  %43 = sext i32 %42 to i64
  %44 = icmp slt i64 %41, %43
  br i1 %44, label %10, label %45, !llvm.loop !12

45:                                               ; preds = %40, %0
  call void @llvm.lifetime.end.p0i8(i64 4, i8* nonnull %5) #5
  call void @llvm.lifetime.end.p0i8(i64 1, i8* nonnull %2) #5
  call void @llvm.lifetime.end.p0i8(i64 64000, i8* nonnull %4) #5
  ret i32 0
}

; Function Attrs: argmemonly mustprogress nofree nosync nounwind willreturn
declare void @llvm.lifetime.start.p0i8(i64 immarg, i8* nocapture) #1

; Function Attrs: nofree nounwind
declare noundef i32 @__isoc99_scanf(i8* nocapture noundef readonly, ...) local_unnamed_addr #2

declare i32 @gets(...) local_unnamed_addr #3

; Function Attrs: argmemonly mustprogress nofree nosync nounwind willreturn
declare void @llvm.lifetime.end.p0i8(i64 immarg, i8* nocapture) #1

; Function Attrs: nofree nounwind
declare noundef i32 @puts(i8* nocapture noundef readonly) local_unnamed_addr #4


!llvm.module.flags = !{!0, !1, !2, !3}
!llvm.ident = !{!4}

!0 = !{i32 1, !"wchar_size", i32 4}
!1 = !{i32 7, !"PIC Level", i32 2}
!2 = !{i32 7, !"PIE Level", i32 2}
!3 = !{i32 7, !"uwtable", i32 1}
!4 = !{!"clang version 13.0.0"}
!5 = !{!6, !6, i64 0}
!6 = !{!"int", !7, i64 0}
!7 = !{!"omnipotent char", !8, i64 0}
!8 = !{!"Simple C/C++ TBAA"}
!9 = !{!7, !7, i64 0}
!10 = distinct !{!10, !11}
!11 = !{!"llvm.loop.mustprogress"}
!12 = distinct !{!12, !11}
